; ModuleID = '55/590.c'
source_filename = "55/590.c"
target datalayout = "e-m:e-p270:32:32-p271:32:32-p272:64:64-i64:64-f80:128-n8:16:32:64-S128"
target triple = "x86_64-pc-linux-gnu"

@.str = private unnamed_addr constant [9 x i8] c"%d %s %d\00", align 1
@.str.1 = private unnamed_addr constant [3 x i8] c"%c\00", align 1

; Function Attrs: noinline nounwind uwtable
define dso_local i32 @v(i32 %0, i32 %1) #0 {
  %3 = alloca i32, align 4
  %4 = alloca i32, align 4
  %5 = alloca i32, align 4
  %6 = alloca i32, align 4
  store i32 %0, i32* %3, align 4
  store i32 %1, i32* %4, align 4
  store i32 1, i32* %5, align 4
  store i32 0, i32* %6, align 4
  br label %7

7:                                                ; preds = %15, %2
  %8 = load i32, i32* %6, align 4
  %9 = load i32, i32* %4, align 4
  %10 = icmp slt i32 %8, %9
  br i1 %10, label %11, label %18

11:                                               ; preds = %7
  %12 = load i32, i32* %5, align 4
  %13 = load i32, i32* %3, align 4
  %14 = mul nsw i32 %12, %13
  store i32 %14, i32* %5, align 4
  br label %15

15:                                               ; preds = %11
  %16 = load i32, i32* %6, align 4
  %17 = add nsw i32 %16, 1
  store i32 %17, i32* %6, align 4
  br label %7

18:                                               ; preds = %7
  %19 = load i32, i32* %5, align 4
  ret i32 %19
}

; Function Attrs: noinline nounwind uwtable
define dso_local void @main() #0 {
  %1 = alloca i32, align 4
  %2 = alloca i32, align 4
  %3 = alloca i32, align 4
  %4 = alloca i32, align 4
  %5 = alloca i32, align 4
  %6 = alloca [100 x i8], align 16
  %7 = alloca [200 x i8], align 16
  %8 = alloca i64, align 8
  store i64 0, i64* %8, align 8
  %9 = getelementptr inbounds [100 x i8], [100 x i8]* %6, i64 0, i64 0
  %10 = call i32 (i8*, ...) @__isoc99_scanf(i8* getelementptr inbounds ([9 x i8], [9 x i8]* @.str, i64 0, i64 0), i32* %1, i8* %9, i32* %2)
  %11 = getelementptr inbounds [100 x i8], [100 x i8]* %6, i64 0, i64 0
  %12 = call i64 @strlen(i8* %11) #3
  %13 = trunc i64 %12 to i32
  store i32 %13, i32* %5, align 4
  %14 = load i32, i32* %5, align 4
  %15 = sub nsw i32 %14, 1
  store i32 %15, i32* %3, align 4
  br label %16

16:                                               ; preds = %70, %0
  %17 = load i32, i32* %3, align 4
  %18 = icmp sge i32 %17, 0
  br i1 %18, label %19, label %73

19:                                               ; preds = %16
  %20 = load i32, i32* %3, align 4
  %21 = sext i32 %20 to i64
  %22 = getelementptr inbounds [100 x i8], [100 x i8]* %6, i64 0, i64 %21
  %23 = load i8, i8* %22, align 1
  %24 = sext i8 %23 to i32
  %25 = icmp sge i32 %24, 48
  br i1 %25, label %26, label %50

26:                                               ; preds = %19
  %27 = load i32, i32* %3, align 4
  %28 = sext i32 %27 to i64
  %29 = getelementptr inbounds [100 x i8], [100 x i8]* %6, i64 0, i64 %28
  %30 = load i8, i8* %29, align 1
  %31 = sext i8 %30 to i32
  %32 = icmp sle i32 %31, 57
  br i1 %32, label %33, label %50

33:                                               ; preds = %26
  %34 = load i64, i64* %8, align 8
  %35 = load i32, i32* %3, align 4
  %36 = sext i32 %35 to i64
  %37 = getelementptr inbounds [100 x i8], [100 x i8]* %6, i64 0, i64 %36
  %38 = load i8, i8* %37, align 1
  %39 = sext i8 %38 to i32
  %40 = sub nsw i32 %39, 48
  %41 = load i32, i32* %1, align 4
  %42 = load i32, i32* %5, align 4
  %43 = sub nsw i32 %42, 1
  %44 = load i32, i32* %3, align 4
  %45 = sub nsw i32 %43, %44
  %46 = call i32 @v(i32 %41, i32 %45)
  %47 = mul nsw i32 %40, %46
  %48 = sext i32 %47 to i64
  %49 = add nsw i64 %34, %48
  store i64 %49, i64* %8, align 8
  br label %69

50:                                               ; preds = %26, %19
  %51 = load i64, i64* %8, align 8
  %52 = load i32, i32* %3, align 4
  %53 = sext i32 %52 to i64
  %54 = getelementptr inbounds [100 x i8], [100 x i8]* %6, i64 0, i64 %53
  %55 = load i8, i8* %54, align 1
  %56 = sext i8 %55 to i32
  %57 = sub nsw i32 %56, 65
  %58 = srem i32 %57, 32
  %59 = add nsw i32 %58, 10
  %60 = load i32, i32* %1, align 4
  %61 = load i32, i32* %5, align 4
  %62 = sub nsw i32 %61, 1
  %63 = load i32, i32* %3, align 4
  %64 = sub nsw i32 %62, %63
  %65 = call i32 @v(i32 %60, i32 %64)
  %66 = mul nsw i32 %59, %65
  %67 = sext i32 %66 to i64
  %68 = add nsw i64 %51, %67
  store i64 %68, i64* %8, align 8
  br label %69

69:                                               ; preds = %50, %33
  br label %70

70:                                               ; preds = %69
  %71 = load i32, i32* %3, align 4
  %72 = add nsw i32 %71, -1
  store i32 %72, i32* %3, align 4
  br label %16

73:                                               ; preds = %16
  store i32 0, i32* %3, align 4
  br label %74

74:                                               ; preds = %121, %73
  %75 = load i64, i64* %8, align 8
  %76 = load i32, i32* %2, align 4
  %77 = sext i32 %76 to i64
  %78 = srem i64 %75, %77
  %79 = icmp sge i64 %78, 0
  br i1 %79, label %80, label %96

80:                                               ; preds = %74
  %81 = load i64, i64* %8, align 8
  %82 = load i32, i32* %2, align 4
  %83 = sext i32 %82 to i64
  %84 = srem i64 %81, %83
  %85 = icmp sle i64 %84, 9
  br i1 %85, label %86, label %96

86:                                               ; preds = %80
  %87 = load i64, i64* %8, align 8
  %88 = load i32, i32* %2, align 4
  %89 = sext i32 %88 to i64
  %90 = srem i64 %87, %89
  %91 = add nsw i64 %90, 48
  %92 = trunc i64 %91 to i8
  %93 = load i32, i32* %3, align 4
  %94 = sext i32 %93 to i64
  %95 = getelementptr inbounds [200 x i8], [200 x i8]* %7, i64 0, i64 %94
  store i8 %92, i8* %95, align 1
  br label %107

96:                                               ; preds = %80, %74
  %97 = load i64, i64* %8, align 8
  %98 = load i32, i32* %2, align 4
  %99 = sext i32 %98 to i64
  %100 = srem i64 %97, %99
  %101 = sub nsw i64 %100, 10
  %102 = add nsw i64 %101, 65
  %103 = trunc i64 %102 to i8
  %104 = load i32, i32* %3, align 4
  %105 = sext i32 %104 to i64
  %106 = getelementptr inbounds [200 x i8], [200 x i8]* %7, i64 0, i64 %105
  store i8 %103, i8* %106, align 1
  br label %107

107:                                              ; preds = %96, %86
  %108 = load i64, i64* %8, align 8
  %109 = load i64, i64* %8, align 8
  %110 = load i32, i32* %2, align 4
  %111 = sext i32 %110 to i64
  %112 = srem i64 %109, %111
  %113 = sub nsw i64 %108, %112
  %114 = load i32, i32* %2, align 4
  %115 = sext i32 %114 to i64
  %116 = sdiv i64 %113, %115
  store i64 %116, i64* %8, align 8
  %117 = load i64, i64* %8, align 8
  %118 = icmp eq i64 %117, 0
  br i1 %118, label %119, label %120

119:                                              ; preds = %107
  br label %124

120:                                              ; preds = %107
  br label %121

121:                                              ; preds = %120
  %122 = load i32, i32* %3, align 4
  %123 = add nsw i32 %122, 1
  store i32 %123, i32* %3, align 4
  br label %74

124:                                              ; preds = %119
  %125 = load i32, i32* %3, align 4
  store i32 %125, i32* %4, align 4
  br label %126

126:                                              ; preds = %136, %124
  %127 = load i32, i32* %4, align 4
  %128 = icmp sge i32 %127, 0
  br i1 %128, label %129, label %139

129:                                              ; preds = %126
  %130 = load i32, i32* %4, align 4
  %131 = sext i32 %130 to i64
  %132 = getelementptr inbounds [200 x i8], [200 x i8]* %7, i64 0, i64 %131
  %133 = load i8, i8* %132, align 1
  %134 = sext i8 %133 to i32
  %135 = call i32 (i8*, ...) @printf(i8* getelementptr inbounds ([3 x i8], [3 x i8]* @.str.1, i64 0, i64 0), i32 %134)
  br label %136

136:                                              ; preds = %129
  %137 = load i32, i32* %4, align 4
  %138 = add nsw i32 %137, -1
  store i32 %138, i32* %4, align 4
  br label %126

139:                                              ; preds = %126
  ret void
}

declare dso_local i32 @__isoc99_scanf(i8*, ...) #1

; Function Attrs: nounwind readonly
declare dso_local i64 @strlen(i8*) #2

declare dso_local i32 @printf(i8*, ...) #1


!llvm.module.flags = !{!0}
!llvm.ident = !{!1}

!0 = !{i32 1, !"wchar_size", i32 4}
!1 = !{!"clang version 10.0.0-4ubuntu1 "}
